target datalayout = "e-m:e-p270:32:32-p271:32:32-p272:64:64-i64:64-i128:128-f80:128-n8:16:32:64-S128"
target triple = "x86_64-pc-linux-gnu"

%struct.AVBSFList = type { ptr, i32 }

; Function Attrs: nounwind uwtable
define void @av_bsf_list_free(ptr noundef %0) #0 {
  %2 = alloca ptr, align 8
  %3 = alloca i32, align 4
  %4 = alloca i32, align 4
  store ptr %0, ptr %2, align 8, !tbaa !65
  call void @llvm.lifetime.start.p0(i64 4, ptr %3) #6
  %5 = load ptr, ptr %2, align 8, !tbaa !65
  %6 = load ptr, ptr %5, align 8, !tbaa !67
  %7 = icmp ne ptr %6, null
  br i1 %7, label %9, label %8

8:                                                ; preds = %1
  store i32 1, ptr %4, align 4
  br label %34

9:                                                ; preds = %1
  store i32 0, ptr %3, align 4, !tbaa !31
  br label %10

10:                                               ; preds = %25, %9
  %11 = load i32, ptr %3, align 4, !tbaa !31
  %12 = load ptr, ptr %2, align 8, !tbaa !65
  %13 = load ptr, ptr %12, align 8, !tbaa !67
  %14 = getelementptr inbounds nuw %struct.AVBSFList, ptr %13, i32 0, i32 1
  %15 = load i32, ptr %14, align 8, !tbaa !69
  %16 = icmp slt i32 %11, %15
  br i1 %16, label %17, label %28

17:                                               ; preds = %10
  %18 = load ptr, ptr %2, align 8, !tbaa !65
  %19 = load ptr, ptr %18, align 8, !tbaa !67
  %20 = getelementptr inbounds nuw %struct.AVBSFList, ptr %19, i32 0, i32 0
  %21 = load ptr, ptr %20, align 8, !tbaa !71
  %22 = load i32, ptr %3, align 4, !tbaa !31
  %23 = sext i32 %22 to i64
  %24 = getelementptr inbounds ptr, ptr %21, i64 %23
  call void @av_bsf_free(ptr noundef %24)
  br label %25

25:                                               ; preds = %17
  %26 = load i32, ptr %3, align 4, !tbaa !31
  %27 = add nsw i32 %26, 1
  store i32 %27, ptr %3, align 4, !tbaa !31
  br label %10, !llvm.loop !72

28:                                               ; preds = %10
  %29 = load ptr, ptr %2, align 8, !tbaa !65
  %30 = load ptr, ptr %29, align 8, !tbaa !67
  %31 = getelementptr inbounds nuw %struct.AVBSFList, ptr %30, i32 0, i32 0
  %32 = load ptr, ptr %31, align 8, !tbaa !71
  call void @av_free(ptr noundef %32)
  %33 = load ptr, ptr %2, align 8, !tbaa !65
  call void @av_freep(ptr noundef %33)
  store i32 0, ptr %4, align 4
  br label %34

34:                                               ; preds = %28, %8
  call void @llvm.lifetime.end.p0(i64 4, ptr %3) #6
  %35 = load i32, ptr %4, align 4
  switch i32 %35, label %37 [
    i32 0, label %36
    i32 1, label %36
  ]

36:                                               ; preds = %34, %34
  ret void

37:                                               ; preds = %34
  unreachable
}