; Function Attrs: nounwind uwtable
define void @av_bsf_list_free(ptr noundef %0) local_unnamed_addr #0 {
  %2 = load ptr, ptr %0, align 8, !tbaa !55
  %.not = icmp eq ptr %2, null
  br i1 %.not, label %15, label %.preheader

.preheader:                                       ; preds = %1
  %3 = getelementptr inbounds nuw i8, ptr %2, i64 8
  %4 = load i32, ptr %3, align 8, !tbaa !57
  %5 = icmp sgt i32 %4, 0
  br i1 %5, label %.lr.ph, label %._crit_edge

.lr.ph:                                           ; preds = %.preheader, %.lr.ph
  %indvars.iv = phi i64 [ %indvars.iv.next, %.lr.ph ], [ 0, %.preheader ]
  %6 = phi ptr [ %9, %.lr.ph ], [ %2, %.preheader ]
  %7 = load ptr, ptr %6, align 8, !tbaa !60
  %8 = getelementptr inbounds nuw ptr, ptr %7, i64 %indvars.iv
  tail call void @av_bsf_free(ptr noundef %8)
  %indvars.iv.next = add nuw nsw i64 %indvars.iv, 1
  %9 = load ptr, ptr %0, align 8, !tbaa !55
  %10 = getelementptr inbounds nuw i8, ptr %9, i64 8
  %11 = load i32, ptr %10, align 8, !tbaa !57
  %12 = sext i32 %11 to i64
  %13 = icmp slt i64 %indvars.iv.next, %12
  br i1 %13, label %.lr.ph, label %._crit_edge, !llvm.loop !61

._crit_edge:                                      ; preds = %.lr.ph, %.preheader
  %.lcssa = phi ptr [ %2, %.preheader ], [ %9, %.lr.ph ]
  %14 = load ptr, ptr %.lcssa, align 8, !tbaa !60
  tail call void @av_free(ptr noundef %14) #6
  tail call void @av_freep(ptr noundef nonnull %0) #6
  br label %15

15:                                               ; preds = %1, %._crit_edge
  ret void
}